target datalayout = "e-m:e-p270:32:32-p271:32:32-p272:64:64-i64:64-i128:128-f80:128-n8:16:32:64-S128"
target triple = "x86_64-pc-linux-gnu"

@.str.1 = private unnamed_addr constant [1 x i8] zeroinitializer, align 1
@bindir = hidden global ptr @.str.4, align 8
@temp_instance = internal global ptr null, align 8
@.str.48 = private unnamed_addr constant [2 x i8] c"/\00", align 1
@postmaster_running = internal global i8 0, align 1
@.str.94 = private unnamed_addr constant [34 x i8] c"\22%s%spg_ctl\22 stop -D \22%s/data\22 -s\00", align 1
@.str.95 = private unnamed_addr constant [44 x i8] c"could not stop postmaster: exit code was %d\00", align 1

; Function Attrs: nounwind uwtable
define internal void @stop_postmaster() #0 {
  %1 = alloca [2048 x i8], align 16
  %2 = alloca i32, align 4
  %3 = load i8, ptr @postmaster_running, align 1, !range !5, !noundef !6
  %4 = trunc i8 %3 to i1
  br i1 %4, label %5, label %27

5:                                                ; preds = %0
  call void @llvm.lifetime.start.p0(i64 2048, ptr %1) #14
  call void @llvm.lifetime.start.p0(i64 4, ptr %2) #14
  %6 = getelementptr inbounds [2048 x i8], ptr %1, i64 0, i64 0
  %7 = load ptr, ptr @bindir, align 8
  %8 = icmp ne ptr %7, null
  br i1 %8, label %9, label %11

9:                                                ; preds = %5
  %10 = load ptr, ptr @bindir, align 8
  br label %12

11:                                               ; preds = %5
  br label %12

12:                                               ; preds = %11, %9
  %13 = phi ptr [ %10, %9 ], [ @.str.1, %11 ]
  %14 = load ptr, ptr @bindir, align 8
  %15 = icmp ne ptr %14, null
  %16 = select i1 %15, ptr @.str.48, ptr @.str.1
  %17 = load ptr, ptr @temp_instance, align 8
  %18 = call i32 (ptr, i64, ptr, ...) @pg_snprintf(ptr noundef %6, i64 noundef 2048, ptr noundef @.str.94, ptr noundef %13, ptr noundef %16, ptr noundef %17)
  %19 = call i32 @fflush(ptr noundef null)
  %20 = getelementptr inbounds [2048 x i8], ptr %1, i64 0, i64 0
  %21 = call i32 @system(ptr noundef %20)
  store i32 %21, ptr %2, align 4
  %22 = load i32, ptr %2, align 4
  %23 = icmp ne i32 %22, 0
  br i1 %23, label %24, label %26

24:                                               ; preds = %12
  %25 = load i32, ptr %2, align 4
  call void (i1, ptr, ...) @bail_out(i1 noundef zeroext true, ptr noundef @.str.95, i32 noundef %25)
  br label %26

26:                                               ; preds = %24, %12
  store i8 0, ptr @postmaster_running, align 1
  call void @llvm.lifetime.end.p0(i64 4, ptr %2) #14
  call void @llvm.lifetime.end.p0(i64 2048, ptr %1) #14
  br label %27

27:                                               ; preds = %26, %0
  ret void
}