; Function Attrs: nounwind uwtable
define internal void @stop_postmaster() #0 {
  %1 = alloca [2048 x i8], align 16
  %.b2 = load i1, ptr @postmaster_running, align 1
  br i1 %.b2, label %2, label %12

2:                                                ; preds = %0
  call void @llvm.lifetime.start.p0(i64 2048, ptr nonnull %1) #22
  %3 = load ptr, ptr @bindir, align 8
  %.not = icmp eq ptr %3, null
  %4 = select i1 %.not, ptr @.str.1, ptr %3
  %5 = select i1 %.not, ptr @.str.1, ptr @.str.48
  %6 = load ptr, ptr @temp_instance, align 8
  %7 = call i32 (ptr, i64, ptr, ...) @pg_snprintf(ptr noundef nonnull %1, i64 noundef 2048, ptr noundef nonnull @.str.94, ptr noundef nonnull %4, ptr noundef nonnull %5, ptr noundef %6) #22
  %8 = call i32 @fflush(ptr noundef null)
  %9 = call i32 @system(ptr noundef nonnull %1) #22
  %.not3 = icmp eq i32 %9, 0
  br i1 %.not3, label %11, label %10

10:                                               ; preds = %2
  call void (i1, ptr, ...) @bail_out(i1 noundef zeroext true, ptr noundef nonnull @.str.95, i32 noundef %9)
  unreachable

11:                                               ; preds = %2
  store i1 false, ptr @postmaster_running, align 1
  call void @llvm.lifetime.end.p0(i64 2048, ptr nonnull %1) #22
  br label %12

12:                                               ; preds = %11, %0
  ret void
}